target datalayout = "e-m:e-p270:32:32-p271:32:32-p272:64:64-i64:64-i128:128-f80:128-n8:16:32:64-S128"
target triple = "x86_64-pc-linux-gnu"

@ruby_global_symbols = hidden global { i32, [4 x i8], ptr, i64, i64 } { i32 246, [4 x i8] zeroinitializer, ptr null, i64 0, i64 0 }, align 8
@rb_eRuntimeError = external global i64, align 8
@.str.7 = private unnamed_addr constant [34 x i8] c"too big to make temporary ID: %zd\00", align 1

; Function Attrs: nounwind sspstrong uwtable
define hidden i64 @rb_make_temporary_id(i64 noundef %0) #0 {
  %2 = alloca i64, align 8
  %3 = alloca i64, align 8
  %4 = alloca i64, align 8
  store i64 %0, ptr %2, align 8, !tbaa !11
  call void @llvm.lifetime.start.p0(i64 8, ptr %3) #24
  store i64 4294901760, ptr %3, align 8, !tbaa !11
  call void @llvm.lifetime.start.p0(i64 8, ptr %4) #24
  %5 = load i64, ptr %2, align 8, !tbaa !11
  %6 = sub i64 4294901760, %5
  store i64 %6, ptr %4, align 8, !tbaa !11
  %7 = load i64, ptr %4, align 8, !tbaa !11
  %8 = load i32, ptr @ruby_global_symbols, align 8, !tbaa !56
  %9 = zext i32 %8 to i64
  %10 = icmp ule i64 %7, %9
  br i1 %10, label %11, label %14

11:                                               ; preds = %1
  %12 = load i64, ptr @rb_eRuntimeError, align 8, !tbaa !11
  %13 = load i64, ptr %2, align 8, !tbaa !11
  call void (i64, ptr, ...) @rb_raise(i64 noundef %12, ptr noundef @.str.7, i64 noundef %13) #26
  unreachable

14:                                               ; preds = %1
  %15 = load i64, ptr %4, align 8, !tbaa !11
  %16 = shl i64 %15, 4
  %17 = or i64 %16, 1
  %18 = or i64 %17, 14
  call void @llvm.lifetime.end.p0(i64 8, ptr %4) #24
  call void @llvm.lifetime.end.p0(i64 8, ptr %3) #24
  ret i64 %18
}