; Function Attrs: nounwind sspstrong uwtable
define hidden range(i64 15, 0) i64 @rb_make_temporary_id(i64 noundef %0) local_unnamed_addr #0 {
  %2 = sub i64 4294901760, %0
  %3 = load i32, ptr @ruby_global_symbols, align 8, !tbaa !34
  %4 = zext i32 %3 to i64
  %.not = icmp ugt i64 %2, %4
  br i1 %.not, label %7, label %5

5:                                                ; preds = %1
  %6 = load i64, ptr @rb_eRuntimeError, align 8, !tbaa !32
  tail call void (i64, ptr, ...) @rb_raise(i64 noundef %6, ptr noundef nonnull @.str.7, i64 noundef %0) #20
  unreachable

7:                                                ; preds = %1
  %8 = shl i64 %2, 4
  %9 = or disjoint i64 %8, 15
  ret i64 %9
}